target datalayout = "e-m:e-p270:32:32-p271:32:32-p272:64:64-i64:64-i128:128-f80:128-n8:16:32:64-S128"
target triple = "x86_64-pc-linux-gnu"

%struct.FT_CMapRec_ = type { %struct.FT_CharMapRec_, ptr }
%struct.FT_CharMapRec_ = type { ptr, i32, i16, i16 }
%struct.CFF_CMapStdRec_ = type { %struct.FT_CMapRec_, ptr }

; Function Attrs: nounwind uwtable
define internal i32 @cff_cmap_encoding_char_index(ptr noundef %0, i32 noundef %1) #0 {
  %3 = alloca ptr, align 8
  %4 = alloca i32, align 4
  %5 = alloca ptr, align 8
  %6 = alloca i32, align 4
  store ptr %0, ptr %3, align 8
  store i32 %1, ptr %4, align 4
  %7 = load ptr, ptr %3, align 8
  store ptr %7, ptr %5, align 8
  store i32 0, ptr %6, align 4
  %8 = load i32, ptr %4, align 4
  %9 = icmp ult i32 %8, 256
  br i1 %9, label %10, label %19

10:                                               ; preds = %2
  %11 = load ptr, ptr %5, align 8
  %12 = getelementptr inbounds %struct.CFF_CMapStdRec_, ptr %11, i32 0, i32 1
  %13 = load ptr, ptr %12, align 8
  %14 = load i32, ptr %4, align 4
  %15 = zext i32 %14 to i64
  %16 = getelementptr inbounds i16, ptr %13, i64 %15
  %17 = load i16, ptr %16, align 2
  %18 = zext i16 %17 to i32
  store i32 %18, ptr %6, align 4
  br label %19

19:                                               ; preds = %10, %2
  %20 = load i32, ptr %6, align 4
  ret i32 %20
}