; Function Attrs: mustprogress nofree norecurse nosync nounwind willreturn memory(read, inaccessiblemem: none) uwtable
define internal range(i32 0, 65536) i32 @cff_cmap_encoding_char_index(ptr nocapture noundef readonly %0, i32 noundef %1) #2 {
  %3 = icmp ult i32 %1, 256
  br i1 %3, label %4, label %11

4:                                                ; preds = %2
  %5 = getelementptr inbounds i8, ptr %0, i64 24
  %6 = load ptr, ptr %5, align 8
  %7 = zext nneg i32 %1 to i64
  %8 = getelementptr inbounds i16, ptr %6, i64 %7
  %9 = load i16, ptr %8, align 2
  %10 = zext i16 %9 to i32
  br label %11

11:                                               ; preds = %4, %2
  %.0 = phi i32 [ %10, %4 ], [ 0, %2 ]
  ret i32 %.0
}